target datalayout = "e-m:e-p270:32:32-p271:32:32-p272:64:64-i64:64-i128:128-f80:128-n8:16:32:64-S128"
target triple = "x86_64-pc-linux-gnu"

%class.QString = type { %struct.QArrayDataPointer }
%struct.QArrayDataPointer = type { ptr, ptr, i64 }
%class.VoipCallsDialog = type { %class.WiresharkDialog.base, i8, ptr, ptr, ptr, ptr, ptr, %struct._voip_calls_tapinfo, ptr, ptr, ptr, ptr, ptr, i8, ptr }
%class.WiresharkDialog.base = type <{ %class.GeometryStateDialog, ptr, i8, [7 x i8], %class.QString, %class.QList, i32, i8 }>
%class.GeometryStateDialog = type { %class.QDialog, %class.QString }
%class.QDialog = type { %class.QWidget }
%class.QWidget = type { %class.QObject, %class.QPaintDevice.base, ptr }
%class.QObject = type { ptr, %class.QScopedPointer }
%class.QScopedPointer = type { ptr }
%class.QPaintDevice.base = type <{ ptr, i16 }>
%class.QList = type { %struct.QArrayDataPointer.0 }
%struct.QArrayDataPointer.0 = type { ptr, ptr, i64 }
%struct._voip_calls_tapinfo = type { ptr, ptr, ptr, ptr, i32, ptr, [1 x ptr], i32, ptr, i32, i32, i32, ptr, ptr, i32, ptr, i32, i8, i32, ptr, i32, i32, i32, i8, i32, ptr, ptr, ptr, i8, i32, i32, i32, i16, i32, i32, i32, i32, i32, i32, i32, i32, i32 }
%class.Ui_VoipCallsDialog = type { ptr, ptr, ptr, ptr, ptr, ptr, ptr, ptr, ptr, ptr, ptr, ptr, ptr, ptr, ptr, ptr, ptr }
%struct._GList = type { ptr, ptr, ptr }
%class.QModelIndex = type { i32, i32, i64, ptr }

; Function Attrs: mustprogress nounwind uwtable
define linkonce_odr void @_ZN11QModelIndexC2Ev(ptr noundef nonnull align 8 dereferenceable(24) %0) unnamed_addr #5 comdat align 2 {
  %2 = alloca ptr, align 8
  store ptr %0, ptr %2, align 8
  %3 = load ptr, ptr %2, align 8
  %4 = getelementptr inbounds %class.QModelIndex, ptr %3, i32 0, i32 0
  store i32 -1, ptr %4, align 8
  %5 = getelementptr inbounds %class.QModelIndex, ptr %3, i32 0, i32 1
  store i32 -1, ptr %5, align 4
  %6 = getelementptr inbounds %class.QModelIndex, ptr %3, i32 0, i32 2
  store i64 0, ptr %6, align 8
  %7 = getelementptr inbounds %class.QModelIndex, ptr %3, i32 0, i32 3
  store ptr null, ptr %7, align 8
  ret void
}

; Function Attrs: mustprogress uwtable
define void @_ZN15VoipCallsDialog11updateCallsEv(ptr noundef nonnull align 8 dereferenceable(480) %0) #0 align 2 {
  %2 = alloca ptr, align 8
  %3 = alloca ptr, align 8
  %4 = alloca ptr, align 8
  %5 = alloca ptr, align 8
  %6 = alloca ptr, align 8
  %7 = alloca i32, align 4
  %8 = alloca %class.QModelIndex, align 8
  store ptr %0, ptr %2, align 8
  %9 = load ptr, ptr %2, align 8
  %10 = getelementptr inbounds %class.VoipCallsDialog, ptr %9, i32 0, i32 2
  %11 = load ptr, ptr %10, align 8
  %12 = getelementptr inbounds %class.Ui_VoipCallsDialog, ptr %11, i32 0, i32 10
  %13 = load ptr, ptr %12, align 8
  call void @_ZN9QTreeView17setSortingEnabledEb(ptr noundef nonnull align 8 dereferenceable(40) %13, i1 noundef zeroext false)
  %14 = getelementptr inbounds %class.VoipCallsDialog, ptr %9, i32 0, i32 7
  %15 = getelementptr inbounds %struct._voip_calls_tapinfo, ptr %14, i32 0, i32 5
  %16 = load ptr, ptr %15, align 8
  %17 = call ptr @g_queue_peek_nth_link(ptr noundef %16, i32 noundef 0)
  store ptr %17, ptr %6, align 8
  br label %18

18:                                               ; preds = %62, %1
  %19 = load ptr, ptr %6, align 8
  %20 = icmp ne ptr %19, null
  br i1 %20, label %21, label %64

21:                                               ; preds = %18
  %22 = load ptr, ptr %6, align 8
  %23 = icmp ne ptr %22, null
  br i1 %23, label %24, label %28

24:                                               ; preds = %21
  %25 = load ptr, ptr %6, align 8
  %26 = getelementptr inbounds %struct._GList, ptr %25, i32 0, i32 0
  %27 = load ptr, ptr %26, align 8
  br label %29

28:                                               ; preds = %21
  br label %29

29:                                               ; preds = %28, %24
  %30 = phi ptr [ %27, %24 ], [ null, %28 ]
  store ptr %30, ptr %3, align 8
  %31 = getelementptr inbounds %class.VoipCallsDialog, ptr %9, i32 0, i32 14
  %32 = load ptr, ptr %31, align 8
  %33 = load ptr, ptr %3, align 8
  %34 = call ptr @g_queue_find_custom(ptr noundef %32, ptr noundef %33, ptr noundef @_ZN15VoipCallsDialog15compareCallNumsEPKvS1_)
  store ptr %34, ptr %5, align 8
  %35 = load ptr, ptr %5, align 8
  %36 = icmp ne ptr %35, null
  br i1 %36, label %41, label %37

37:                                               ; preds = %29
  %38 = getelementptr inbounds %class.VoipCallsDialog, ptr %9, i32 0, i32 14
  %39 = load ptr, ptr %38, align 8
  %40 = load ptr, ptr %3, align 8
  call void @g_queue_push_tail(ptr noundef %39, ptr noundef %40)
  br label %54

41:                                               ; preds = %29
  %42 = load ptr, ptr %5, align 8
  %43 = getelementptr inbounds %struct._GList, ptr %42, i32 0, i32 0
  %44 = load ptr, ptr %43, align 8
  store ptr %44, ptr %4, align 8
  %45 = load ptr, ptr %3, align 8
  %46 = load ptr, ptr %4, align 8
  %47 = icmp ne ptr %45, %46
  br i1 %47, label %48, label %53

48:                                               ; preds = %41
  %49 = load ptr, ptr %4, align 8
  call void @voip_calls_free_callsinfo(ptr noundef %49)
  %50 = load ptr, ptr %3, align 8
  %51 = load ptr, ptr %5, align 8
  %52 = getelementptr inbounds %struct._GList, ptr %51, i32 0, i32 0
  store ptr %50, ptr %52, align 8
  br label %53

53:                                               ; preds = %48, %41
  br label %54

54:                                               ; preds = %53, %37
  %55 = load ptr, ptr %6, align 8
  %56 = icmp ne ptr %55, null
  br i1 %56, label %57, label %61

57:                                               ; preds = %54
  %58 = load ptr, ptr %6, align 8
  %59 = getelementptr inbounds %struct._GList, ptr %58, i32 0, i32 1
  %60 = load ptr, ptr %59, align 8
  br label %62

61:                                               ; preds = %54
  br label %62

62:                                               ; preds = %61, %57
  %63 = phi ptr [ %60, %57 ], [ null, %61 ]
  store ptr %63, ptr %6, align 8
  br label %18, !llvm.loop !7

64:                                               ; preds = %18
  %65 = getelementptr inbounds %class.VoipCallsDialog, ptr %9, i32 0, i32 3
  %66 = load ptr, ptr %65, align 8
  %67 = getelementptr inbounds %class.VoipCallsDialog, ptr %9, i32 0, i32 14
  %68 = load ptr, ptr %67, align 8
  call void @_ZN18VoipCallsInfoModel11updateCallsEP7_GQueue(ptr noundef nonnull align 8 dereferenceable(41) %66, ptr noundef %68)
  store i32 0, ptr %7, align 4
  br label %69

69:                                               ; preds = %84, %64
  %70 = load i32, ptr %7, align 4
  %71 = getelementptr inbounds %class.VoipCallsDialog, ptr %9, i32 0, i32 3
  %72 = load ptr, ptr %71, align 8
  call void @_ZN11QModelIndexC2Ev(ptr noundef nonnull align 8 dereferenceable(24) %8) #17
  %73 = load ptr, ptr %72, align 8
  %74 = getelementptr inbounds ptr, ptr %73, i64 16
  %75 = load ptr, ptr %74, align 8
  %76 = call noundef i32 %75(ptr noundef nonnull align 8 dereferenceable(41) %72, ptr noundef nonnull align 8 dereferenceable(24) %8)
  %77 = icmp slt i32 %70, %76
  br i1 %77, label %78, label %87

78:                                               ; preds = %69
  %79 = getelementptr inbounds %class.VoipCallsDialog, ptr %9, i32 0, i32 2
  %80 = load ptr, ptr %79, align 8
  %81 = getelementptr inbounds %class.Ui_VoipCallsDialog, ptr %80, i32 0, i32 10
  %82 = load ptr, ptr %81, align 8
  %83 = load i32, ptr %7, align 4
  call void @_ZN9QTreeView22resizeColumnToContentsEi(ptr noundef nonnull align 8 dereferenceable(40) %82, i32 noundef %83)
  br label %84

84:                                               ; preds = %78
  %85 = load i32, ptr %7, align 4
  %86 = add i32 %85, 1
  store i32 %86, ptr %7, align 4
  br label %69, !llvm.loop !8

87:                                               ; preds = %69
  %88 = getelementptr inbounds %class.VoipCallsDialog, ptr %9, i32 0, i32 2
  %89 = load ptr, ptr %88, align 8
  %90 = getelementptr inbounds %class.Ui_VoipCallsDialog, ptr %89, i32 0, i32 10
  %91 = load ptr, ptr %90, align 8
  call void @_ZN9QTreeView17setSortingEnabledEb(ptr noundef nonnull align 8 dereferenceable(40) %91, i1 noundef zeroext true)
  %92 = load ptr, ptr %9, align 8
  %93 = getelementptr inbounds ptr, ptr %92, i64 58
  %94 = load ptr, ptr %93, align 8
  call void %94(ptr noundef nonnull align 8 dereferenceable(480) %9)
  ret void
}