; Function Attrs: mustprogress uwtable
define void @_ZN15VoipCallsDialog11updateCallsEv(ptr noundef nonnull align 8 dereferenceable(480) %0) local_unnamed_addr #0 align 2 {
  %2 = alloca %class.QModelIndex, align 8
  %3 = getelementptr inbounds i8, ptr %0, i64 136
  %4 = load ptr, ptr %3, align 8
  %5 = getelementptr inbounds i8, ptr %4, i64 80
  %6 = load ptr, ptr %5, align 8
  tail call void @_ZN9QTreeView17setSortingEnabledEb(ptr noundef nonnull align 8 dereferenceable(40) %6, i1 noundef zeroext false)
  %7 = getelementptr inbounds i8, ptr %0, i64 216
  %8 = load ptr, ptr %7, align 8
  %9 = tail call ptr @g_queue_peek_nth_link(ptr noundef %8, i32 noundef 0)
  %.not23 = icmp eq ptr %9, null
  br i1 %.not23, label %._crit_edge, label %.lr.ph

.lr.ph:                                           ; preds = %1
  %10 = getelementptr inbounds i8, ptr %0, i64 472
  br label %11

11:                                               ; preds = %.lr.ph, %20
  %.01724 = phi ptr [ %9, %.lr.ph ], [ %22, %20 ]
  %12 = load ptr, ptr %.01724, align 8
  %13 = load ptr, ptr %10, align 8
  %14 = tail call ptr @g_queue_find_custom(ptr noundef %13, ptr noundef %12, ptr noundef nonnull @_ZN15VoipCallsDialog15compareCallNumsEPKvS1_)
  %.not21 = icmp eq ptr %14, null
  br i1 %.not21, label %15, label %17

15:                                               ; preds = %11
  %16 = load ptr, ptr %10, align 8
  tail call void @g_queue_push_tail(ptr noundef %16, ptr noundef %12)
  br label %20

17:                                               ; preds = %11
  %18 = load ptr, ptr %14, align 8
  %.not22 = icmp eq ptr %12, %18
  br i1 %.not22, label %20, label %19

19:                                               ; preds = %17
  tail call void @voip_calls_free_callsinfo(ptr noundef %18)
  store ptr %12, ptr %14, align 8
  br label %20

20:                                               ; preds = %17, %19, %15
  %21 = getelementptr inbounds i8, ptr %.01724, i64 8
  %22 = load ptr, ptr %21, align 8
  %.not = icmp eq ptr %22, null
  br i1 %.not, label %._crit_edge, label %11, !llvm.loop !20

._crit_edge:                                      ; preds = %20, %1
  %23 = getelementptr inbounds i8, ptr %0, i64 144
  %24 = load ptr, ptr %23, align 8
  %25 = getelementptr inbounds i8, ptr %0, i64 472
  %26 = load ptr, ptr %25, align 8
  tail call void @_ZN18VoipCallsInfoModel11updateCallsEP7_GQueue(ptr noundef nonnull align 8 dereferenceable(41) %24, ptr noundef %26)
  %27 = getelementptr inbounds i8, ptr %2, i64 4
  %28 = getelementptr inbounds i8, ptr %2, i64 8
  %29 = load ptr, ptr %23, align 8
  store i32 -1, ptr %2, align 8
  store i32 -1, ptr %27, align 4
  call void @llvm.memset.p0.i64(ptr noundef nonnull align 8 dereferenceable(16) %28, i8 0, i64 16, i1 false)
  %30 = load ptr, ptr %29, align 8
  %31 = getelementptr inbounds i8, ptr %30, i64 128
  %32 = load ptr, ptr %31, align 8
  %33 = call noundef i32 %32(ptr noundef nonnull align 8 dereferenceable(41) %29, ptr noundef nonnull align 8 dereferenceable(24) %2)
  %34 = icmp sgt i32 %33, 0
  br i1 %34, label %.lr.ph27, label %._crit_edge28

.lr.ph27:                                         ; preds = %._crit_edge, %.lr.ph27
  %.025 = phi i32 [ %38, %.lr.ph27 ], [ 0, %._crit_edge ]
  %35 = load ptr, ptr %3, align 8
  %36 = getelementptr inbounds i8, ptr %35, i64 80
  %37 = load ptr, ptr %36, align 8
  call void @_ZN9QTreeView22resizeColumnToContentsEi(ptr noundef nonnull align 8 dereferenceable(40) %37, i32 noundef %.025)
  %38 = add nuw nsw i32 %.025, 1
  %39 = load ptr, ptr %23, align 8
  store i32 -1, ptr %2, align 8
  store i32 -1, ptr %27, align 4
  call void @llvm.memset.p0.i64(ptr noundef nonnull align 8 dereferenceable(16) %28, i8 0, i64 16, i1 false)
  %40 = load ptr, ptr %39, align 8
  %41 = getelementptr inbounds i8, ptr %40, i64 128
  %42 = load ptr, ptr %41, align 8
  %43 = call noundef i32 %42(ptr noundef nonnull align 8 dereferenceable(41) %39, ptr noundef nonnull align 8 dereferenceable(24) %2)
  %44 = icmp slt i32 %38, %43
  br i1 %44, label %.lr.ph27, label %._crit_edge28, !llvm.loop !21

._crit_edge28:                                    ; preds = %.lr.ph27, %._crit_edge
  %45 = load ptr, ptr %3, align 8
  %46 = getelementptr inbounds i8, ptr %45, i64 80
  %47 = load ptr, ptr %46, align 8
  call void @_ZN9QTreeView17setSortingEnabledEb(ptr noundef nonnull align 8 dereferenceable(40) %47, i1 noundef zeroext true)
  %48 = load ptr, ptr %0, align 8
  %49 = getelementptr inbounds i8, ptr %48, i64 464
  %50 = load ptr, ptr %49, align 8
  call void %50(ptr noundef nonnull align 8 dereferenceable(480) %0)
  ret void
}